target datalayout = "e-m:e-p270:32:32-p271:32:32-p272:64:64-i64:64-i128:128-f80:128-n8:16:32:64-S128"
target triple = "x86_64-unknown-linux-gnu"

%"class.hermes::vm::CompressedPointer" = type { %"class.hermes::vm::BasedPointer" }
%"class.hermes::vm::BasedPointer" = type { i32 }
%"class.hermes::vm::HadesGC::OldGen" = type { ptr, %"class.std::deque", %"class.hermes::ExponentialMovingAverage", i64, i64, %"class.hermes::BitArray", %"class.std::deque.4", %"struct.std::array.10", %"struct.hermes::vm::HadesGC::OldGen::SweepIterator" }
%"class.std::deque" = type { %"class.std::_Deque_base" }
%"class.std::_Deque_base" = type { %"struct.std::_Deque_base<hermes::vm::HadesGC::HeapSegment, std::allocator<hermes::vm::HadesGC::HeapSegment>>::_Deque_impl" }
%"struct.std::_Deque_base<hermes::vm::HadesGC::HeapSegment, std::allocator<hermes::vm::HadesGC::HeapSegment>>::_Deque_impl" = type { %"struct.std::_Deque_base<hermes::vm::HadesGC::HeapSegment, std::allocator<hermes::vm::HadesGC::HeapSegment>>::_Deque_impl_data" }
%"struct.std::_Deque_base<hermes::vm::HadesGC::HeapSegment, std::allocator<hermes::vm::HadesGC::HeapSegment>>::_Deque_impl_data" = type { ptr, i64, %"struct.std::_Deque_iterator", %"struct.std::_Deque_iterator" }
%"struct.std::_Deque_iterator" = type { ptr, ptr, ptr, ptr }
%"class.hermes::ExponentialMovingAverage" = type { double, double }
%"class.hermes::BitArray" = type { %"struct.std::array" }
%"struct.std::array" = type { [5 x i64] }
%"class.std::deque.4" = type { %"class.std::_Deque_base.5" }
%"class.std::_Deque_base.5" = type { %"struct.std::_Deque_base<std::array<hermes::vm::HadesGC::OldGen::SegmentBucket, 267>, std::allocator<std::array<hermes::vm::HadesGC::OldGen::SegmentBucket, 267>>>::_Deque_impl" }
%"struct.std::_Deque_base<std::array<hermes::vm::HadesGC::OldGen::SegmentBucket, 267>, std::allocator<std::array<hermes::vm::HadesGC::OldGen::SegmentBucket, 267>>>::_Deque_impl" = type { %"struct.std::_Deque_base<std::array<hermes::vm::HadesGC::OldGen::SegmentBucket, 267>, std::allocator<std::array<hermes::vm::HadesGC::OldGen::SegmentBucket, 267>>>::_Deque_impl_data" }
%"struct.std::_Deque_base<std::array<hermes::vm::HadesGC::OldGen::SegmentBucket, 267>, std::allocator<std::array<hermes::vm::HadesGC::OldGen::SegmentBucket, 267>>>::_Deque_impl_data" = type { ptr, i64, %"struct.std::_Deque_iterator.9", %"struct.std::_Deque_iterator.9" }
%"struct.std::_Deque_iterator.9" = type { ptr, ptr, ptr, ptr }
%"struct.std::array.10" = type { [267 x %"struct.hermes::vm::HadesGC::OldGen::SegmentBucket"] }
%"struct.hermes::vm::HadesGC::OldGen::SegmentBucket" = type <{ ptr, ptr, %"class.hermes::vm::AssignableCompressedPointer", [4 x i8] }>
%"class.hermes::vm::AssignableCompressedPointer" = type { %"class.hermes::vm::CompressedPointer" }
%"struct.hermes::vm::HadesGC::OldGen::SweepIterator" = type { i64, i64, i64 }
%"struct.std::_Deque_iterator.135" = type { ptr, ptr, ptr, ptr }

; Function Attrs: mustprogress nounwind uwtable
define linkonce_odr hidden void @_ZNSt15_Deque_iteratorIN6hermes2vm7HadesGC11HeapSegmentERKS3_PS4_EC2IS_IS3_RS3_PS3_EvEERKT_(ptr noundef nonnull align 8 dereferenceable(32) %this, ptr noundef nonnull align 8 dereferenceable(32) %__x) unnamed_addr #0 comdat align 2 {
entry:
  %this.addr = alloca ptr, align 8
  %__x.addr = alloca ptr, align 8
  store ptr %this, ptr %this.addr, align 8
  store ptr %__x, ptr %__x.addr, align 8
  %this1 = load ptr, ptr %this.addr, align 8
  %_M_cur = getelementptr inbounds %"struct.std::_Deque_iterator.135", ptr %this1, i32 0, i32 0
  %0 = load ptr, ptr %__x.addr, align 8
  %_M_cur2 = getelementptr inbounds %"struct.std::_Deque_iterator", ptr %0, i32 0, i32 0
  %1 = load ptr, ptr %_M_cur2, align 8
  store ptr %1, ptr %_M_cur, align 8
  %_M_first = getelementptr inbounds %"struct.std::_Deque_iterator.135", ptr %this1, i32 0, i32 1
  %2 = load ptr, ptr %__x.addr, align 8
  %_M_first3 = getelementptr inbounds %"struct.std::_Deque_iterator", ptr %2, i32 0, i32 1
  %3 = load ptr, ptr %_M_first3, align 8
  store ptr %3, ptr %_M_first, align 8
  %_M_last = getelementptr inbounds %"struct.std::_Deque_iterator.135", ptr %this1, i32 0, i32 2
  %4 = load ptr, ptr %__x.addr, align 8
  %_M_last4 = getelementptr inbounds %"struct.std::_Deque_iterator", ptr %4, i32 0, i32 2
  %5 = load ptr, ptr %_M_last4, align 8
  store ptr %5, ptr %_M_last, align 8
  %_M_node = getelementptr inbounds %"struct.std::_Deque_iterator.135", ptr %this1, i32 0, i32 3
  %6 = load ptr, ptr %__x.addr, align 8
  %_M_node5 = getelementptr inbounds %"struct.std::_Deque_iterator", ptr %6, i32 0, i32 3
  %7 = load ptr, ptr %_M_node5, align 8
  store ptr %7, ptr %_M_node, align 8
  ret void
}

; Function Attrs: mustprogress nounwind uwtable
define linkonce_odr hidden void @_ZNKSt5dequeIN6hermes2vm7HadesGC11HeapSegmentESaIS3_EE3endEv(ptr noalias sret(%"struct.std::_Deque_iterator.135") align 8 %agg.result, ptr noundef nonnull align 8 dereferenceable(80) %this) #0 comdat align 2 {
entry:
  %result.ptr = alloca ptr, align 8
  %this.addr = alloca ptr, align 8
  store ptr %agg.result, ptr %result.ptr, align 8
  store ptr %this, ptr %this.addr, align 8
  %this1 = load ptr, ptr %this.addr, align 8
  %_M_impl = getelementptr inbounds %"class.std::_Deque_base", ptr %this1, i32 0, i32 0
  %_M_finish = getelementptr inbounds %"struct.std::_Deque_base<hermes::vm::HadesGC::HeapSegment, std::allocator<hermes::vm::HadesGC::HeapSegment>>::_Deque_impl_data", ptr %_M_impl, i32 0, i32 3
  call void @_ZNSt15_Deque_iteratorIN6hermes2vm7HadesGC11HeapSegmentERKS3_PS4_EC2IS_IS3_RS3_PS3_EvEERKT_(ptr noundef nonnull align 8 dereferenceable(32) %agg.result, ptr noundef nonnull align 8 dereferenceable(32) %_M_finish) #18
  ret void
}

; Function Attrs: mustprogress nounwind uwtable
define hidden void @_ZNK6hermes2vm7HadesGC6OldGen3endEv(ptr noalias sret(%"struct.std::_Deque_iterator.135") align 8 %agg.result, ptr noundef nonnull align 8 dereferenceable(6672) %this) #0 align 2 {
entry:
  %result.ptr = alloca ptr, align 8
  %this.addr = alloca ptr, align 8
  store ptr %agg.result, ptr %result.ptr, align 8
  store ptr %this, ptr %this.addr, align 8
  %this1 = load ptr, ptr %this.addr, align 8
  %segments_ = getelementptr inbounds %"class.hermes::vm::HadesGC::OldGen", ptr %this1, i32 0, i32 1
  call void @_ZNKSt5dequeIN6hermes2vm7HadesGC11HeapSegmentESaIS3_EE3endEv(ptr sret(%"struct.std::_Deque_iterator.135") align 8 %agg.result, ptr noundef nonnull align 8 dereferenceable(80) %segments_) #18
  ret void
}